; ModuleID = '58/253.c'
source_filename = "58/253.c"
target datalayout = "e-m:e-p270:32:32-p271:32:32-p272:64:64-i64:64-f80:128-n8:16:32:64-S128"
target triple = "x86_64-pc-linux-gnu"

@.str = private unnamed_addr constant [3 x i8] c"%d\00", align 1
@.str.1 = private unnamed_addr constant [4 x i8] c"%d\0A\00", align 1

; Function Attrs: noinline nounwind uwtable
define dso_local i32 @main() #0 {
  %1 = alloca i32, align 4
  %2 = alloca i32, align 4
  %3 = alloca i32, align 4
  %4 = alloca i32, align 4
  %5 = alloca i32, align 4
  %6 = alloca i8*, align 8
  %7 = alloca i64, align 8
  store i32 0, i32* %1, align 4
  store i32 1, i32* %5, align 4
  %8 = call i32 (i8*, ...) @__isoc99_scanf(i8* getelementptr inbounds ([3 x i8], [3 x i8]* @.str, i64 0, i64 0), i32* %4)
  %9 = call i32 @getchar()
  %10 = load i32, i32* %4, align 4
  %11 = zext i32 %10 to i64
  %12 = call i8* @llvm.stacksave()
  store i8* %12, i8** %6, align 8
  %13 = alloca [80 x i8], i64 %11, align 16
  store i64 %11, i64* %7, align 8
  store i32 0, i32* %2, align 4
  br label %14

14:                                               ; preds = %154, %0
  %15 = load i32, i32* %2, align 4
  %16 = load i32, i32* %4, align 4
  %17 = icmp slt i32 %15, %16
  br i1 %17, label %18, label %157

18:                                               ; preds = %14
  store i32 1, i32* %5, align 4
  %19 = load i32, i32* %2, align 4
  %20 = sext i32 %19 to i64
  %21 = getelementptr inbounds [80 x i8], [80 x i8]* %13, i64 %20
  %22 = getelementptr inbounds [80 x i8], [80 x i8]* %21, i64 0, i64 0
  %23 = call i32 (i8*, ...) bitcast (i32 (...)* @gets to i32 (i8*, ...)*)(i8* %22)
  %24 = load i32, i32* %2, align 4
  %25 = sext i32 %24 to i64
  %26 = getelementptr inbounds [80 x i8], [80 x i8]* %13, i64 %25
  %27 = getelementptr inbounds [80 x i8], [80 x i8]* %26, i64 0, i64 0
  %28 = load i8, i8* %27, align 16
  %29 = sext i8 %28 to i32
  %30 = icmp sge i32 %29, 97
  br i1 %30, label %31, label %39

31:                                               ; preds = %18
  %32 = load i32, i32* %2, align 4
  %33 = sext i32 %32 to i64
  %34 = getelementptr inbounds [80 x i8], [80 x i8]* %13, i64 %33
  %35 = getelementptr inbounds [80 x i8], [80 x i8]* %34, i64 0, i64 0
  %36 = load i8, i8* %35, align 16
  %37 = sext i8 %36 to i32
  %38 = icmp sle i32 %37, 122
  br i1 %38, label %63, label %39

39:                                               ; preds = %31, %18
  %40 = load i32, i32* %2, align 4
  %41 = sext i32 %40 to i64
  %42 = getelementptr inbounds [80 x i8], [80 x i8]* %13, i64 %41
  %43 = getelementptr inbounds [80 x i8], [80 x i8]* %42, i64 0, i64 0
  %44 = load i8, i8* %43, align 16
  %45 = sext i8 %44 to i32
  %46 = icmp sge i32 %45, 65
  br i1 %46, label %47, label %55

47:                                               ; preds = %39
  %48 = load i32, i32* %2, align 4
  %49 = sext i32 %48 to i64
  %50 = getelementptr inbounds [80 x i8], [80 x i8]* %13, i64 %49
  %51 = getelementptr inbounds [80 x i8], [80 x i8]* %50, i64 0, i64 0
  %52 = load i8, i8* %51, align 16
  %53 = sext i8 %52 to i32
  %54 = icmp sle i32 %53, 90
  br i1 %54, label %63, label %55

55:                                               ; preds = %47, %39
  %56 = load i32, i32* %2, align 4
  %57 = sext i32 %56 to i64
  %58 = getelementptr inbounds [80 x i8], [80 x i8]* %13, i64 %57
  %59 = getelementptr inbounds [80 x i8], [80 x i8]* %58, i64 0, i64 0
  %60 = load i8, i8* %59, align 16
  %61 = sext i8 %60 to i32
  %62 = icmp eq i32 %61, 95
  br i1 %62, label %63, label %150

63:                                               ; preds = %55, %47, %31
  store i32 1, i32* %3, align 4
  br label %64

64:                                               ; preds = %146, %63
  %65 = load i32, i32* %3, align 4
  %66 = sext i32 %65 to i64
  %67 = load i32, i32* %2, align 4
  %68 = sext i32 %67 to i64
  %69 = getelementptr inbounds [80 x i8], [80 x i8]* %13, i64 %68
  %70 = getelementptr inbounds [80 x i8], [80 x i8]* %69, i64 0, i64 0
  %71 = call i64 @strlen(i8* %70) #4
  %72 = icmp ult i64 %66, %71
  br i1 %72, label %73, label %149

73:                                               ; preds = %64
  %74 = load i32, i32* %2, align 4
  %75 = sext i32 %74 to i64
  %76 = getelementptr inbounds [80 x i8], [80 x i8]* %13, i64 %75
  %77 = load i32, i32* %3, align 4
  %78 = sext i32 %77 to i64
  %79 = getelementptr inbounds [80 x i8], [80 x i8]* %76, i64 0, i64 %78
  %80 = load i8, i8* %79, align 1
  %81 = sext i8 %80 to i32
  %82 = icmp sge i32 %81, 97
  br i1 %82, label %83, label %93

83:                                               ; preds = %73
  %84 = load i32, i32* %2, align 4
  %85 = sext i32 %84 to i64
  %86 = getelementptr inbounds [80 x i8], [80 x i8]* %13, i64 %85
  %87 = load i32, i32* %3, align 4
  %88 = sext i32 %87 to i64
  %89 = getelementptr inbounds [80 x i8], [80 x i8]* %86, i64 0, i64 %88
  %90 = load i8, i8* %89, align 1
  %91 = sext i8 %90 to i32
  %92 = icmp sle i32 %91, 122
  br i1 %92, label %143, label %93

93:                                               ; preds = %83, %73
  %94 = load i32, i32* %2, align 4
  %95 = sext i32 %94 to i64
  %96 = getelementptr inbounds [80 x i8], [80 x i8]* %13, i64 %95
  %97 = load i32, i32* %3, align 4
  %98 = sext i32 %97 to i64
  %99 = getelementptr inbounds [80 x i8], [80 x i8]* %96, i64 0, i64 %98
  %100 = load i8, i8* %99, align 1
  %101 = sext i8 %100 to i32
  %102 = icmp sge i32 %101, 65
  br i1 %102, label %103, label %113

103:                                              ; preds = %93
  %104 = load i32, i32* %2, align 4
  %105 = sext i32 %104 to i64
  %106 = getelementptr inbounds [80 x i8], [80 x i8]* %13, i64 %105
  %107 = load i32, i32* %3, align 4
  %108 = sext i32 %107 to i64
  %109 = getelementptr inbounds [80 x i8], [80 x i8]* %106, i64 0, i64 %108
  %110 = load i8, i8* %109, align 1
  %111 = sext i8 %110 to i32
  %112 = icmp sle i32 %111, 90
  br i1 %112, label %143, label %113

113:                                              ; preds = %103, %93
  %114 = load i32, i32* %2, align 4
  %115 = sext i32 %114 to i64
  %116 = getelementptr inbounds [80 x i8], [80 x i8]* %13, i64 %115
  %117 = load i32, i32* %3, align 4
  %118 = sext i32 %117 to i64
  %119 = getelementptr inbounds [80 x i8], [80 x i8]* %116, i64 0, i64 %118
  %120 = load i8, i8* %119, align 1
  %121 = sext i8 %120 to i32
  %122 = icmp eq i32 %121, 95
  br i1 %122, label %143, label %123

123:                                              ; preds = %113
  %124 = load i32, i32* %2, align 4
  %125 = sext i32 %124 to i64
  %126 = getelementptr inbounds [80 x i8], [80 x i8]* %13, i64 %125
  %127 = load i32, i32* %3, align 4
  %128 = sext i32 %127 to i64
  %129 = getelementptr inbounds [80 x i8], [80 x i8]* %126, i64 0, i64 %128
  %130 = load i8, i8* %129, align 1
  %131 = sext i8 %130 to i32
  %132 = icmp sge i32 %131, 48
  br i1 %132, label %133, label %144

133:                                              ; preds = %123
  %134 = load i32, i32* %2, align 4
  %135 = sext i32 %134 to i64
  %136 = getelementptr inbounds [80 x i8], [80 x i8]* %13, i64 %135
  %137 = load i32, i32* %3, align 4
  %138 = sext i32 %137 to i64
  %139 = getelementptr inbounds [80 x i8], [80 x i8]* %136, i64 0, i64 %138
  %140 = load i8, i8* %139, align 1
  %141 = sext i8 %140 to i32
  %142 = icmp sle i32 %141, 57
  br i1 %142, label %143, label %144

143:                                              ; preds = %133, %113, %103, %83
  store i32 1, i32* %5, align 4
  br label %145

144:                                              ; preds = %133, %123
  store i32 0, i32* %5, align 4
  br label %149

145:                                              ; preds = %143
  br label %146

146:                                              ; preds = %145
  %147 = load i32, i32* %3, align 4
  %148 = add nsw i32 %147, 1
  store i32 %148, i32* %3, align 4
  br label %64

149:                                              ; preds = %144, %64
  br label %151

150:                                              ; preds = %55
  store i32 0, i32* %5, align 4
  br label %151

151:                                              ; preds = %150, %149
  %152 = load i32, i32* %5, align 4
  %153 = call i32 (i8*, ...) @printf(i8* getelementptr inbounds ([4 x i8], [4 x i8]* @.str.1, i64 0, i64 0), i32 %152)
  br label %154

154:                                              ; preds = %151
  %155 = load i32, i32* %2, align 4
  %156 = add nsw i32 %155, 1
  store i32 %156, i32* %2, align 4
  br label %14

157:                                              ; preds = %14
  %158 = load i8*, i8** %6, align 8
  call void @llvm.stackrestore(i8* %158)
  %159 = load i32, i32* %1, align 4
  ret i32 %159
}

declare dso_local i32 @__isoc99_scanf(i8*, ...) #1

declare dso_local i32 @getchar() #1

; Function Attrs: nounwind
declare i8* @llvm.stacksave() #2

declare dso_local i32 @gets(...) #1

; Function Attrs: nounwind readonly
declare dso_local i64 @strlen(i8*) #3

declare dso_local i32 @printf(i8*, ...) #1

; Function Attrs: nounwind
declare void @llvm.stackrestore(i8*) #2


!llvm.module.flags = !{!0}
!llvm.ident = !{!1}

!0 = !{i32 1, !"wchar_size", i32 4}
!1 = !{!"clang version 10.0.0-4ubuntu1 "}
