; ModuleID = 'source-C-CXX/57/253.c'
source_filename = "source-C-CXX/57/253.c"
target datalayout = "e-m:e-p270:32:32-p271:32:32-p272:64:64-i64:64-f80:128-n8:16:32:64-S128"
target triple = "x86_64-pc-linux-gnu"

%struct._IO_FILE = type { i32, i8*, i8*, i8*, i8*, i8*, i8*, i8*, i8*, i8*, i8*, i8*, %struct._IO_marker*, %struct._IO_FILE*, i32, i32, i64, i16, i8, [1 x i8], i8*, i64, %struct._IO_codecvt*, %struct._IO_wide_data*, %struct._IO_FILE*, i8*, i64, i32, [20 x i8] }
%struct._IO_marker = type opaque
%struct._IO_codecvt = type opaque
%struct._IO_wide_data = type opaque

@.str = private unnamed_addr constant [3 x i8] c"%d\00", align 1
@.str.1 = private unnamed_addr constant [4 x i8] c"%d\0A\00", align 1
@stdin = external local_unnamed_addr global %struct._IO_FILE*, align 8

; Function Attrs: nounwind sspstrong uwtable
define dso_local i32 @main() local_unnamed_addr #0 {
  %1 = alloca i32, align 4
  %2 = bitcast i32* %1 to i8*
  call void @llvm.lifetime.start.p0i8(i64 4, i8* nonnull %2) #6
  %3 = call i32 (i8*, ...) @__isoc99_scanf(i8* getelementptr inbounds ([3 x i8], [3 x i8]* @.str, i64 0, i64 0), i32* nonnull %1)
  %4 = load %struct._IO_FILE*, %struct._IO_FILE** @stdin, align 8, !tbaa !5
  %5 = call i32 @getc(%struct._IO_FILE* %4) #6
  %6 = load i32, i32* %1, align 4, !tbaa !9
  %7 = zext i32 %6 to i64
  %8 = call i8* @llvm.stacksave()
  %9 = alloca [80 x i8], i64 %7, align 16
  %10 = load i32, i32* %1, align 4, !tbaa !9
  %11 = icmp sgt i32 %10, 0
  br i1 %11, label %12, label %51

12:                                               ; preds = %0, %44
  %13 = phi i64 [ %47, %44 ], [ 0, %0 ]
  %14 = getelementptr inbounds [80 x i8], [80 x i8]* %9, i64 %13, i64 0
  %15 = call i32 (i8*, ...) bitcast (i32 (...)* @gets to i32 (i8*, ...)*)(i8* nonnull %14) #6
  %16 = load i8, i8* %14, align 16, !tbaa !11
  %17 = add i8 %16, -97
  %18 = icmp ult i8 %17, 26
  br i1 %18, label %24, label %19

19:                                               ; preds = %12
  %20 = add i8 %16, -65
  %21 = icmp ult i8 %20, 26
  %22 = icmp eq i8 %16, 95
  %23 = or i1 %22, %21
  br i1 %23, label %24, label %44

24:                                               ; preds = %19, %12
  %25 = call i64 @strlen(i8* noundef nonnull %14) #7
  %26 = icmp ugt i64 %25, 1
  br i1 %26, label %27, label %44

27:                                               ; preds = %24, %41
  %28 = phi i64 [ %42, %41 ], [ 1, %24 ]
  %29 = getelementptr inbounds [80 x i8], [80 x i8]* %9, i64 %13, i64 %28
  %30 = load i8, i8* %29, align 1, !tbaa !11
  %31 = add i8 %30, -97
  %32 = icmp ult i8 %31, 26
  br i1 %32, label %41, label %33

33:                                               ; preds = %27
  %34 = add i8 %30, -65
  %35 = icmp ult i8 %34, 26
  %36 = icmp eq i8 %30, 95
  %37 = or i1 %36, %35
  %38 = add i8 %30, -48
  %39 = icmp ult i8 %38, 10
  %40 = or i1 %39, %37
  br i1 %40, label %41, label %44

41:                                               ; preds = %33, %27
  %42 = add nuw i64 %28, 1
  %43 = icmp eq i64 %42, %25
  br i1 %43, label %44, label %27, !llvm.loop !12

44:                                               ; preds = %41, %33, %24, %19
  %45 = phi i32 [ 0, %19 ], [ 1, %24 ], [ 1, %41 ], [ 0, %33 ]
  %46 = call i32 (i8*, ...) @printf(i8* nonnull dereferenceable(1) getelementptr inbounds ([4 x i8], [4 x i8]* @.str.1, i64 0, i64 0), i32 %45)
  %47 = add nuw nsw i64 %13, 1
  %48 = load i32, i32* %1, align 4, !tbaa !9
  %49 = sext i32 %48 to i64
  %50 = icmp slt i64 %47, %49
  br i1 %50, label %12, label %51, !llvm.loop !14

51:                                               ; preds = %44, %0
  call void @llvm.stackrestore(i8* %8)
  call void @llvm.lifetime.end.p0i8(i64 4, i8* nonnull %2) #6
  ret i32 0
}

; Function Attrs: argmemonly mustprogress nofree nosync nounwind willreturn
declare void @llvm.lifetime.start.p0i8(i64 immarg, i8* nocapture) #1

; Function Attrs: nofree nounwind
declare noundef i32 @__isoc99_scanf(i8* nocapture noundef readonly, ...) local_unnamed_addr #2

; Function Attrs: mustprogress nofree nosync nounwind willreturn
declare i8* @llvm.stacksave() #3

declare i32 @gets(...) local_unnamed_addr #4

; Function Attrs: argmemonly mustprogress nofree nounwind readonly willreturn
declare i64 @strlen(i8* nocapture) local_unnamed_addr #5

; Function Attrs: nofree nounwind
declare noundef i32 @printf(i8* nocapture noundef readonly, ...) local_unnamed_addr #2

; Function Attrs: mustprogress nofree nosync nounwind willreturn
declare void @llvm.stackrestore(i8*) #3

; Function Attrs: argmemonly mustprogress nofree nosync nounwind willreturn
declare void @llvm.lifetime.end.p0i8(i64 immarg, i8* nocapture) #1

; Function Attrs: nofree nounwind
declare noundef i32 @getc(%struct._IO_FILE* nocapture noundef) local_unnamed_addr #2


!llvm.module.flags = !{!0, !1, !2, !3}
!llvm.ident = !{!4}

!0 = !{i32 1, !"wchar_size", i32 4}
!1 = !{i32 7, !"PIC Level", i32 2}
!2 = !{i32 7, !"PIE Level", i32 2}
!3 = !{i32 7, !"uwtable", i32 1}
!4 = !{!"clang version 13.0.0"}
!5 = !{!6, !6, i64 0}
!6 = !{!"any pointer", !7, i64 0}
!7 = !{!"omnipotent char", !8, i64 0}
!8 = !{!"Simple C/C++ TBAA"}
!9 = !{!10, !10, i64 0}
!10 = !{!"int", !7, i64 0}
!11 = !{!7, !7, i64 0}
!12 = distinct !{!12, !13}
!13 = !{!"llvm.loop.mustprogress"}
!14 = distinct !{!14, !13}
